target datalayout = "e-m:e-p270:32:32-p271:32:32-p272:64:64-i64:64-i128:128-f80:128-n8:16:32:64-S128"
target triple = "x86_64-pc-linux-gnu"

@.str = private unnamed_addr constant [11 x i8] c"%s[%d]=%d\0A\00", align 1
@.str.1 = private unnamed_addr constant [29 x i8] c"%s[%d,...,%d] = {%d,...,%d}\0A\00", align 1

; Function Attrs: mustprogress uwtable
define void @_Z13pr_ivec_blockP8_IO_FILEiPKcPKiib(ptr noundef %0, i32 noundef %1, ptr noundef %2, ptr noundef %3, i32 noundef %4, i1 noundef zeroext %5) #0 {
  %7 = alloca ptr, align 8
  %8 = alloca i32, align 4
  %9 = alloca ptr, align 8
  %10 = alloca ptr, align 8
  %11 = alloca i32, align 4
  %12 = alloca i8, align 1
  %13 = alloca i32, align 4
  %14 = alloca i32, align 4
  store ptr %0, ptr %7, align 8
  store i32 %1, ptr %8, align 4
  store ptr %2, ptr %9, align 8
  store ptr %3, ptr %10, align 8
  store i32 %4, ptr %11, align 4
  %15 = zext i1 %5 to i8
  store i8 %15, ptr %12, align 1
  %16 = load ptr, ptr %7, align 8
  %17 = load ptr, ptr %10, align 8
  %18 = load i32, ptr %8, align 4
  %19 = load ptr, ptr %9, align 8
  %20 = call noundef zeroext i1 @_Z9availableP8_IO_FILEPKviPKc(ptr noundef %16, ptr noundef %17, i32 noundef %18, ptr noundef %19)
  br i1 %20, label %21, label %125

21:                                               ; preds = %6
  %22 = load ptr, ptr %7, align 8
  %23 = load i32, ptr %8, align 4
  %24 = load ptr, ptr %9, align 8
  %25 = load i32, ptr %11, align 4
  %26 = call noundef i32 @_Z10pr_title_nP8_IO_FILEiPKci(ptr noundef %22, i32 noundef %23, ptr noundef %24, i32 noundef %25)
  store i32 %26, ptr %8, align 4
  store i32 0, ptr %13, align 4
  br label %27

27:                                               ; preds = %123, %21
  %28 = load i32, ptr %13, align 4
  %29 = load i32, ptr %11, align 4
  %30 = icmp slt i32 %28, %29
  br i1 %30, label %31, label %124

31:                                               ; preds = %27
  %32 = load i32, ptr %13, align 4
  %33 = add nsw i32 %32, 1
  store i32 %33, ptr %14, align 4
  br label %34

34:                                               ; preds = %54, %31
  %35 = load i32, ptr %14, align 4
  %36 = load i32, ptr %11, align 4
  %37 = icmp slt i32 %35, %36
  br i1 %37, label %38, label %52

38:                                               ; preds = %34
  %39 = load ptr, ptr %10, align 8
  %40 = load i32, ptr %14, align 4
  %41 = sext i32 %40 to i64
  %42 = getelementptr inbounds i32, ptr %39, i64 %41
  %43 = load i32, ptr %42, align 4
  %44 = load ptr, ptr %10, align 8
  %45 = load i32, ptr %14, align 4
  %46 = sub nsw i32 %45, 1
  %47 = sext i32 %46 to i64
  %48 = getelementptr inbounds i32, ptr %44, i64 %47
  %49 = load i32, ptr %48, align 4
  %50 = add nsw i32 %49, 1
  %51 = icmp eq i32 %43, %50
  br label %52

52:                                               ; preds = %38, %34
  %53 = phi i1 [ false, %34 ], [ %51, %38 ]
  br i1 %53, label %54, label %57

54:                                               ; preds = %52
  %55 = load i32, ptr %14, align 4
  %56 = add nsw i32 %55, 1
  store i32 %56, ptr %14, align 4
  br label %34, !llvm.loop !7

57:                                               ; preds = %52
  %58 = load i32, ptr %14, align 4
  %59 = load i32, ptr %13, align 4
  %60 = sub nsw i32 %58, %59
  %61 = icmp slt i32 %60, 3
  br i1 %61, label %62, label %89

62:                                               ; preds = %57
  br label %63

63:                                               ; preds = %78, %62
  %64 = load i32, ptr %13, align 4
  %65 = load i32, ptr %14, align 4
  %66 = icmp slt i32 %64, %65
  br i1 %66, label %67, label %88

67:                                               ; preds = %63
  %68 = load ptr, ptr %7, align 8
  %69 = load i32, ptr %8, align 4
  %70 = call noundef i32 @_Z9pr_indentP8_IO_FILEi(ptr noundef %68, i32 noundef %69)
  %71 = load ptr, ptr %7, align 8
  %72 = load ptr, ptr %9, align 8
  %73 = load i8, ptr %12, align 1
  %74 = trunc i8 %73 to i1
  br i1 %74, label %75, label %77

75:                                               ; preds = %67
  %76 = load i32, ptr %13, align 4
  br label %78

77:                                               ; preds = %67
  br label %78

78:                                               ; preds = %77, %75
  %79 = phi i32 [ %76, %75 ], [ -1, %77 ]
  %80 = load ptr, ptr %10, align 8
  %81 = load i32, ptr %13, align 4
  %82 = sext i32 %81 to i64
  %83 = getelementptr inbounds i32, ptr %80, i64 %82
  %84 = load i32, ptr %83, align 4
  %85 = call i32 (ptr, ptr, ...) @fprintf(ptr noundef %71, ptr noundef @.str, ptr noundef %72, i32 noundef %79, i32 noundef %84) #3
  %86 = load i32, ptr %13, align 4
  %87 = add nsw i32 %86, 1
  store i32 %87, ptr %13, align 4
  br label %63, !llvm.loop !8

88:                                               ; preds = %63
  br label %123

89:                                               ; preds = %57
  %90 = load ptr, ptr %7, align 8
  %91 = load i32, ptr %8, align 4
  %92 = call noundef i32 @_Z9pr_indentP8_IO_FILEi(ptr noundef %90, i32 noundef %91)
  %93 = load ptr, ptr %7, align 8
  %94 = load ptr, ptr %9, align 8
  %95 = load i8, ptr %12, align 1
  %96 = trunc i8 %95 to i1
  br i1 %96, label %97, label %99

97:                                               ; preds = %89
  %98 = load i32, ptr %13, align 4
  br label %100

99:                                               ; preds = %89
  br label %100

100:                                              ; preds = %99, %97
  %101 = phi i32 [ %98, %97 ], [ -1, %99 ]
  %102 = load i8, ptr %12, align 1
  %103 = trunc i8 %102 to i1
  br i1 %103, label %104, label %107

104:                                              ; preds = %100
  %105 = load i32, ptr %14, align 4
  %106 = sub nsw i32 %105, 1
  br label %108

107:                                              ; preds = %100
  br label %108

108:                                              ; preds = %107, %104
  %109 = phi i32 [ %106, %104 ], [ -1, %107 ]
  %110 = load ptr, ptr %10, align 8
  %111 = load i32, ptr %13, align 4
  %112 = sext i32 %111 to i64
  %113 = getelementptr inbounds i32, ptr %110, i64 %112
  %114 = load i32, ptr %113, align 4
  %115 = load ptr, ptr %10, align 8
  %116 = load i32, ptr %14, align 4
  %117 = sub nsw i32 %116, 1
  %118 = sext i32 %117 to i64
  %119 = getelementptr inbounds i32, ptr %115, i64 %118
  %120 = load i32, ptr %119, align 4
  %121 = call i32 (ptr, ptr, ...) @fprintf(ptr noundef %93, ptr noundef @.str.1, ptr noundef %94, i32 noundef %101, i32 noundef %109, i32 noundef %114, i32 noundef %120) #3
  %122 = load i32, ptr %14, align 4
  store i32 %122, ptr %13, align 4
  br label %123

123:                                              ; preds = %108, %88
  br label %27, !llvm.loop !9

124:                                              ; preds = %27
  br label %125

125:                                              ; preds = %124, %6
  ret void
}