; Function Attrs: mustprogress uwtable
define void @_Z13pr_ivec_blockP8_IO_FILEiPKcPKiib(ptr noundef %0, i32 noundef %1, ptr noundef %2, ptr noundef %3, i32 noundef %4, i1 noundef zeroext %5) local_unnamed_addr #0 {
  %7 = tail call noundef zeroext i1 @_Z9availableP8_IO_FILEPKviPKc(ptr noundef %0, ptr noundef %3, i32 noundef %1, ptr noundef %2)
  br i1 %7, label %8, label %.loopexit46

8:                                                ; preds = %6
  %9 = tail call noundef i32 @_Z10pr_title_nP8_IO_FILEiPKci(ptr noundef %0, i32 noundef %1, ptr noundef %2, i32 noundef %4)
  %10 = icmp sgt i32 %4, 0
  br i1 %10, label %.preheader45.lr.ph, label %.loopexit46

.preheader45.lr.ph:                               ; preds = %8
  %11 = zext nneg i32 %4 to i64
  br i1 %5, label %.preheader45.us, label %.preheader45

.preheader45.us:                                  ; preds = %.preheader45.lr.ph, %.loopexit.us
  %.04349.us = phi i32 [ %.2.us, %.loopexit.us ], [ 0, %.preheader45.lr.ph ]
  %12 = sext i32 %.04349.us to i64
  %13 = add nsw i32 %.04349.us, 1
  %smax58 = tail call i32 @llvm.smax.i32(i32 %4, i32 %13)
  %14 = add nsw i32 %smax58, -1
  br label %15

15:                                               ; preds = %17, %.preheader45.us
  %indvars.iv56 = phi i64 [ %indvars.iv.next57, %17 ], [ %12, %.preheader45.us ]
  %indvars.iv.next57 = add nsw i64 %indvars.iv56, 1
  %16 = icmp slt i64 %indvars.iv.next57, %11
  br i1 %16, label %17, label %.critedge.us

17:                                               ; preds = %15
  %18 = getelementptr inbounds i32, ptr %3, i64 %indvars.iv.next57
  %19 = load i32, ptr %18, align 4
  %20 = getelementptr inbounds i32, ptr %3, i64 %indvars.iv56
  %21 = load i32, ptr %20, align 4
  %22 = add nsw i32 %21, 1
  %23 = icmp eq i32 %19, %22
  br i1 %23, label %15, label %.critedge.us.split.loop.exit, !llvm.loop !7

.critedge.us.split.loop.exit:                     ; preds = %17
  %24 = trunc nsw i64 %indvars.iv56 to i32
  %25 = trunc nsw i64 %indvars.iv.next57 to i32
  br label %.critedge.us

.critedge.us:                                     ; preds = %15, %.critedge.us.split.loop.exit
  %.0.in.us.lcssa = phi i32 [ %24, %.critedge.us.split.loop.exit ], [ %14, %15 ]
  %.0.us.lcssa = phi i32 [ %25, %.critedge.us.split.loop.exit ], [ %smax58, %15 ]
  %26 = sub nsw i32 %.0.us.lcssa, %.04349.us
  %27 = icmp slt i32 %26, 3
  br i1 %27, label %.preheader.us, label %28

28:                                               ; preds = %.critedge.us
  %29 = tail call noundef i32 @_Z9pr_indentP8_IO_FILEi(ptr noundef %0, i32 noundef %9)
  %30 = getelementptr inbounds i32, ptr %3, i64 %12
  %31 = load i32, ptr %30, align 4
  %32 = sext i32 %.0.in.us.lcssa to i64
  %33 = getelementptr inbounds i32, ptr %3, i64 %32
  %34 = load i32, ptr %33, align 4
  %35 = tail call i32 (ptr, ptr, ...) @fprintf(ptr noundef %0, ptr noundef nonnull @.str.1, ptr noundef %2, i32 noundef %.04349.us, i32 noundef %.0.in.us.lcssa, i32 noundef %31, i32 noundef %34) #6
  br label %.loopexit.us

.loopexit.us:                                     ; preds = %.lr.ph.us, %.preheader.us, %28
  %.2.us = phi i32 [ %.0.us.lcssa, %28 ], [ %.04349.us, %.preheader.us ], [ %37, %.lr.ph.us ]
  %36 = icmp slt i32 %.2.us, %4
  br i1 %36, label %.preheader45.us, label %.loopexit46, !llvm.loop !8

.preheader.us:                                    ; preds = %.critedge.us
  %.not47.us = icmp sgt i32 %.04349.us, %.0.in.us.lcssa
  br i1 %.not47.us, label %.loopexit.us, label %.lr.ph.us.preheader

.lr.ph.us.preheader:                              ; preds = %.preheader.us
  %37 = add i32 %.0.in.us.lcssa, 1
  br label %.lr.ph.us

.lr.ph.us:                                        ; preds = %.lr.ph.us.preheader, %.lr.ph.us
  %indvars.iv60 = phi i64 [ %12, %.lr.ph.us.preheader ], [ %indvars.iv.next61, %.lr.ph.us ]
  %38 = tail call noundef i32 @_Z9pr_indentP8_IO_FILEi(ptr noundef %0, i32 noundef %9)
  %39 = getelementptr inbounds i32, ptr %3, i64 %indvars.iv60
  %40 = load i32, ptr %39, align 4
  %41 = trunc nsw i64 %indvars.iv60 to i32
  %42 = tail call i32 (ptr, ptr, ...) @fprintf(ptr noundef %0, ptr noundef nonnull @.str, ptr noundef %2, i32 noundef %41, i32 noundef %40) #6
  %indvars.iv.next61 = add nsw i64 %indvars.iv60, 1
  %lftr.wideiv63 = trunc i64 %indvars.iv.next61 to i32
  %exitcond64.not = icmp eq i32 %37, %lftr.wideiv63
  br i1 %exitcond64.not, label %.loopexit.us, label %.lr.ph.us, !llvm.loop !9

.preheader45:                                     ; preds = %.preheader45.lr.ph, %.loopexit
  %.04349 = phi i32 [ %.2, %.loopexit ], [ 0, %.preheader45.lr.ph ]
  %43 = sext i32 %.04349 to i64
  %44 = add nsw i32 %.04349, 1
  %smax = tail call i32 @llvm.smax.i32(i32 %4, i32 %44)
  %45 = add nsw i32 %smax, -1
  br label %46

46:                                               ; preds = %.preheader45, %48
  %indvars.iv = phi i64 [ %43, %.preheader45 ], [ %indvars.iv.next, %48 ]
  %indvars.iv.next = add nsw i64 %indvars.iv, 1
  %47 = icmp slt i64 %indvars.iv.next, %11
  br i1 %47, label %48, label %.critedge

48:                                               ; preds = %46
  %49 = getelementptr inbounds i32, ptr %3, i64 %indvars.iv.next
  %50 = load i32, ptr %49, align 4
  %51 = getelementptr inbounds i32, ptr %3, i64 %indvars.iv
  %52 = load i32, ptr %51, align 4
  %53 = add nsw i32 %52, 1
  %54 = icmp eq i32 %50, %53
  br i1 %54, label %46, label %.critedge.split.loop.exit66, !llvm.loop !7

.critedge.split.loop.exit66:                      ; preds = %48
  %55 = trunc nsw i64 %indvars.iv to i32
  %56 = trunc nsw i64 %indvars.iv.next to i32
  br label %.critedge

.critedge:                                        ; preds = %46, %.critedge.split.loop.exit66
  %.0.in.lcssa = phi i32 [ %55, %.critedge.split.loop.exit66 ], [ %45, %46 ]
  %.0.lcssa = phi i32 [ %56, %.critedge.split.loop.exit66 ], [ %smax, %46 ]
  %57 = sub nsw i32 %.0.lcssa, %.04349
  %58 = icmp slt i32 %57, 3
  br i1 %58, label %.preheader, label %64

.preheader:                                       ; preds = %.critedge
  %.not47 = icmp sgt i32 %.04349, %.0.in.lcssa
  br i1 %.not47, label %.loopexit, label %.lr.ph.preheader

.lr.ph.preheader:                                 ; preds = %.preheader
  %59 = add i32 %.0.in.lcssa, 1
  br label %.lr.ph

.lr.ph:                                           ; preds = %.lr.ph.preheader, %.lr.ph
  %indvars.iv53 = phi i64 [ %43, %.lr.ph.preheader ], [ %indvars.iv.next54, %.lr.ph ]
  %60 = tail call noundef i32 @_Z9pr_indentP8_IO_FILEi(ptr noundef %0, i32 noundef %9)
  %61 = getelementptr inbounds i32, ptr %3, i64 %indvars.iv53
  %62 = load i32, ptr %61, align 4
  %63 = tail call i32 (ptr, ptr, ...) @fprintf(ptr noundef %0, ptr noundef nonnull @.str, ptr noundef %2, i32 noundef -1, i32 noundef %62) #6
  %indvars.iv.next54 = add nsw i64 %indvars.iv53, 1
  %lftr.wideiv = trunc i64 %indvars.iv.next54 to i32
  %exitcond.not = icmp eq i32 %59, %lftr.wideiv
  br i1 %exitcond.not, label %.loopexit, label %.lr.ph, !llvm.loop !9

64:                                               ; preds = %.critedge
  %65 = tail call noundef i32 @_Z9pr_indentP8_IO_FILEi(ptr noundef %0, i32 noundef %9)
  %66 = getelementptr inbounds i32, ptr %3, i64 %43
  %67 = load i32, ptr %66, align 4
  %68 = sext i32 %.0.in.lcssa to i64
  %69 = getelementptr inbounds i32, ptr %3, i64 %68
  %70 = load i32, ptr %69, align 4
  %71 = tail call i32 (ptr, ptr, ...) @fprintf(ptr noundef %0, ptr noundef nonnull @.str.1, ptr noundef %2, i32 noundef -1, i32 noundef -1, i32 noundef %67, i32 noundef %70) #6
  br label %.loopexit

.loopexit:                                        ; preds = %.lr.ph, %.preheader, %64
  %.2 = phi i32 [ %.0.lcssa, %64 ], [ %.04349, %.preheader ], [ %59, %.lr.ph ]
  %72 = icmp slt i32 %.2, %4
  br i1 %72, label %.preheader45, label %.loopexit46, !llvm.loop !8

.loopexit46:                                      ; preds = %.loopexit, %.loopexit.us, %8, %6
  ret void
}